(lp0
(dp1
S'lat'
p2
S'36.884147'
p3
sS'city'
p4
S'Norfolk'
p5
sS'pop'
p6
I6
sS'long'
p7
S'-76.301293'
p8
sS'time'
p9
I1322715600
sa(dp10
g2
S'27.989543'
p11
sg4
S'Tampa, FL'
p12
sg6
I6
sg7
S'-82.371035'
p13
sg9
I1322888400
sa(dp14
g2
S'44.978749'
p15
sg4
S'Minneapolis'
p16
sg6
I6
sg7
S'-93.275979'
p17
sg9
I1322974800
sa(dp18
g2
S'44.979657'
p19
sg4
S'Minneapolis'
p20
sg6
I6
sg7
S'-93.274889'
p21
sg9
I1322974800
sa(dp22
g2
S'47.621178'
p23
sg4
S'Seattle'
p24
sg6
I6
sg7
S'-122.352215'
p25
sg9
I1323234000
sa(dp26
g2
S'39.969817'
p27
sg4
S'Columbus'
p28
sg6
I6
sg7
S'-83.010375'
p29
sg9
I1323320400
sa(dp30
g2
S'40.677885'
p31
sg4
S'New York'
p32
sg6
I6
sg7
S'-73.897424'
p33
sg9
I1323406800
sa(dp34
g2
S'26.157094'
p35
sg4
S'Sunrise'
p36
sg6
I6
sg7
S'-80.324639'
p37
sg9
I1323493200
sa(dp38
g2
S'34.141965'
p39
sg4
S'Universal City'
p40
sg6
I6
sg7
S'-118.359308'
p41
sg9
I1323579600
sa(dp42
g2
S'21.306306'
p43
sg4
S'Honolulu'
p44
sg6
I6
sg7
S'-157.865877'
p45
sg9
I1332043200
sa(dp46
g2
S'32.588035'
p47
sg4
S'Chula Vista, CA'
p48
sg6
I6
sg7
S'-117.008901'
p49
sg9
I1337918400
sa(dp50
g2
S'40.772002'
p51
sg4
S'New York'
p52
sg6
I6
sg7
S'-73.973651'
p53
sg9
I1338264000
sa(dp54
g2
S'40.772002'
p55
sg4
S'New York'
p56
sg6
I6
sg7
S'-73.973651'
p57
sg9
I1338350400
sa(dp58
g2
S'39.969817'
p59
sg4
S'Columbus'
p60
sg6
I6
sg7
S'-83.010375'
p61
sg9
I1338523200
sa(dp62
g2
S'32.766655'
p63
sg4
S'Grand Prairie'
p64
sg6
I6
sg7
S'-96.983614'
p65
sg9
I1338782400
sa(dp66
g2
S'30.315195'
p67
sg4
S'Austin'
p68
sg6
I6
sg7
S'-97.953058'
p69
sg9
I1338868800
sa(dp70
g2
S'34.05443'
p71
sg4
S'Alpharetta'
p72
sg6
I6
sg7
S'-84.306488'
p73
sg9
I1339041600
sa(dp74
g2
S'35.482577'
p75
sg4
S'Manchester'
p76
sg6
I6
sg7
S'-86.087875'
p77
sg9
I1339041600
sa(dp78
g2
S'39.211546'
p79
sg4
S'Columbia, MD'
p80
sg6
I6
sg7
S'-76.862665'
p81
sg9
I1339300800
sa(dp82
g2
S'40.772002'
p83
sg4
S'New York'
p84
sg6
I6
sg7
S'-73.973651'
p85
sg9
I1339387200
sa(dp86
g2
S'41.180888'
p87
sg4
S'Cuyahoga Falls'
p88
sg6
I6
sg7
S'-81.551994'
p89
sg9
I1339560000
sa(dp90
g2
S'39.981529'
p91
sg4
S'Philadelphia'
p92
sg6
I6
sg7
S'-75.224049'
p93
sg9
I1339646400
sa(dp94
g2
S'42.348522'
p95
sg4
S'Boston'
p96
sg6
I6
sg7
S'-71.035881'
p97
sg9
I1339732800
sa(dp98
g2
S'42.337521'
p99
sg4
S'Detroit'
p100
sg6
I6
sg7
S'-83.052131'
p101
sg9
I1339905600
sa(dp102
g2
S'41.920004'
p103
sg4
S'Chicago'
p104
sg6
I6
sg7
S'-87.692431'
p105
sg9
I1340164800
sa(dp106
g2
S'41.920004'
p107
sg4
S'Chicago'
p108
sg6
I6
sg7
S'-87.692431'
p109
sg9
I1340251200
sa(dp110
g2
S'44.979657'
p111
sg4
S'Minneapolis'
p112
sg6
I6
sg7
S'-93.274889'
p113
sg9
I1340337600
sa(dp114
g2
S'47.594171'
p115
sg4
S'Seattle'
p116
sg6
I6
sg7
S'-122.333257'
p117
sg9
I1340683200
sa(dp118
g2
S'45.538357'
p119
sg4
S'Troutdale'
p120
sg6
I6
sg7
S'-122.409019'
p121
sg9
I1340769600
sa(dp122
g2
S'37.873828'
p123
sg4
S'Berkeley'
p124
sg6
I6
sg7
S'-122.255385'
p125
sg9
I1340942400
sa(dp126
g2
S'34.141965'
p127
sg4
S'Universal City'
p128
sg6
I6
sg7
S'-118.359308'
p129
sg9
I1341028800
sa(dp130
g2
S'34.141965'
p131
sg4
S'Universal City'
p132
sg6
I6
sg7
S'-118.359308'
p133
sg9
I1341115200
sa(dp134
g2
S'39.67893'
p135
sg4
S'Morrison'
p136
sg6
I27
sg7
S'-105.191884'
p137
sg9
I1341288000
sa(dp138
g2
S'40.747111'
p139
sg4
S'Magna, UT'
p140
sg6
I27
sg7
S'-112.188327'
p141
sg9
I1341460800
sa(dp142
g2
S'33.448775'
p143
sg4
S'Phoenix'
p144
sg6
I27
sg7
S'-112.079564'
p145
sg9
I1341547200
sa(dp146
g2
S'36.10962'
p147
sg4
S'Las Vegas'
p148
sg6
I27
sg7
S'-115.173654'
p149
sg9
I1341633600
sa(dp150
g2
S'37.426718'
p151
sg4
S'Mountain View'
p152
sg6
I27
sg7
S'-122.080722'
p153
sg9
I1350705600
sa(dp154
g2
S'21.294186'
p155
sg4
S'Honolulu'
p156
sg6
I27
sg7
S'-157.844918'
p157
sg9
I1354942800
sa(dp158
g2
S'34.08151'
p159
sg4
S'West Hollywood'
p160
sg6
I27
sg7
S'-118.389272'
p161
sg9
I1370145600
sa(dp162
g2
S'34.077448'
p163
sg4
S'Los Angeles'
p164
sg6
I27
sg7
S'-118.260135'
p165
sg9
I1370232000
sa(dp166
g2
S'39.18834'
p167
sg4
S'Dover, DE'
p168
sg6
I27
sg7
S'-75.532956'
p169
sg9
I1371787200
sa.