(dp0
S'indie'
p1
(lp2
I1211716800
aI1212321600
aI1212926400
aI1213531200
aI1214136000
aI1214740800
aI1215345600
aI1215950400
aI1216555200
aI1217160000
aI1217764800
aI1218369600
aI1218974400
aI1219579200
aI1220184000
aI1220788800
aI1221393600
aI1221998400
aI1222603200
aI1223208000
aI1223812800
aI1224417600
aI1225022400
aI1225627200
aI1226232000
aI1226836800
aI1227441600
aI1228046400
aI1228651200
aI1229256000
aI1229860800
aI1230465600
aI1231070400
aI1231675200
aI1232280000
aI1232884800
aI1233489600
aI1234094400
aI1234699200
aI1235304000
aI1235908800
aI1236513600
aI1237118400
aI1237723200
aI1238328000
aI1238932800
aI1239537600
aI1240142400
aI1240747200
aI1241352000
aI1241956800
aI1242561600
aI1243166400
aI1243771200
aI1244376000
aI1244980800
aI1245585600
aI1246190400
aI1246795200
aI1247400000
aI1248004800
aI1248609600
aI1249214400
aI1249819200
aI1250424000
aI1251028800
aI1251633600
aI1252238400
aI1252843200
aI1253448000
aI1254052800
aI1254657600
aI1255262400
aI1255867200
aI1256472000
aI1257076800
aI1257681600
aI1258286400
aI1258891200
aI1259496000
aI1260100800
aI1260705600
aI1261310400
aI1261915200
aI1262520000
aI1263124800
aI1263729600
aI1264334400
aI1264939200
aI1265544000
aI1266148800
aI1266753600
aI1267358400
aI1267963200
aI1268568000
aI1269172800
aI1269777600
aI1270382400
aI1270987200
aI1271592000
aI1272196800
aI1272801600
aI1273406400
aI1274011200
aI1274616000
aI1275220800
aI1275825600
aI1276430400
aI1277035200
aI1277640000
aI1278244800
aI1278849600
aI1279454400
aI1280059200
aI1280664000
aI1281268800
aI1281873600
aI1282478400
aI1283083200
aI1283688000
aI1284292800
aI1284897600
aI1285502400
aI1286107200
aI1286712000
aI1287316800
aI1287921600
aI1288526400
aI1289131200
aI1289736000
aI1290340800
aI1290945600
aI1291550400
aI1292155200
aI1292760000
aI1293364800
aI1293969600
aI1294574400
aI1295179200
aI1295784000
aI1296388800
aI1296993600
aI1297598400
aI1298203200
aI1298808000
aI1299412800
aI1300017600
aI1300622400
aI1301227200
aI1301832000
aI1302436800
aI1303041600
aI1303646400
aI1304251200
aI1304856000
aI1305460800
aI1306065600
aI1306670400
aI1307275200
aI1307880000
aI1308484800
aI1309089600
aI1309694400
aI1310299200
aI1310904000
aI1311508800
aI1312113600
aI1312718400
aI1313323200
aI1313928000
aI1314532800
aI1315137600
aI1315742400
aI1316347200
aI1316952000
aI1317556800
aI1318161600
aI1318766400
aI1319371200
aI1319976000
aI1320580800
aI1321185600
aI1321790400
aI1322395200
aI1323000000
aI1323604800
aI1324209600
aI1324814400
aI1325419200
aI1326024000
aI1326628800
aI1327233600
aI1327838400
aI1328443200
aI1329048000
aI1329652800
aI1330257600
aI1330862400
aI1331467200
aI1332072000
aI1332676800
aI1333281600
aI1333886400
aI1334491200
aI1335096000
aI1335700800
aI1336305600
aI1336910400
aI1337515200
aI1338120000
aI1338724800
aI1339329600
aI1339934400
aI1340539200
aI1341144000
aI1341748800
aI1342353600
aI1342958400
aI1343563200
aI1344168000
aI1344772800
aI1345377600
aI1345982400
aI1346587200
aI1347192000
aI1347796800
aI1348401600
aI1349006400
aI1349611200
aI1350216000
aI1350820800
aI1351425600
aI1352030400
aI1352635200
aI1353240000
aI1353844800
aI1354449600
aI1355054400
aI1355659200
aI1356264000
aI1356868800
aI1357473600
aI1358078400
aI1358683200
aI1359288000
aI1359892800
aI1360497600
aI1361102400
aI1361707200
aI1362312000
aI1362916800
aI1363521600
aI1364126400
aI1364731200
aI1365336000
aI1365940800
aI1366545600
aI1367150400
aI1367755200
aI1368360000
aI1368964800
aI1369569600
aI1370174400
aI1370779200
aI1371384000
aI1371988800
aI1372593600
aI1373198400
aI1373803200
aI1374408000
aI1375012800
aI1375617600
aI1376222400
aI1376827200
aI1377432000
aI1378036800
aI1378641600
aI1379246400
aI1379851200
aI1380456000
aI1381060800
aI1381665600
aI1382270400
aI1382875200
aI1383480000
aI1384084800
aI1384689600
aI1385294400
aI1385899200
aI1386504000
as.